; Function Attrs: mustprogress uwtable
define void @_ZN8proxygen19ServerListGenerator15detachEventBaseEv(ptr nocapture noundef nonnull align 8 dereferenceable(20) %this) unnamed_addr #0 align 2 personality ptr @__gxx_personality_v0 {
entry:
  %ref.tmp3 = alloca %"class.google::LogMessageFatal", align 8
  %eventBase_ = getelementptr inbounds i8, ptr %this, i64 8
  %0 = load ptr, ptr %eventBase_, align 8
  %tobool.not = icmp eq ptr %0, null
  br i1 %tobool.not, label %cleanup.done, label %lor.rhs

lor.rhs:                                          ; preds = %entry
  %loopThread_.i = getelementptr inbounds i8, ptr %0, i64 64
  %1 = load atomic i64, ptr %loopThread_.i monotonic, align 8
  %call.i.i = tail call i64 @pthread_self() #13
  %cmp.i.i = icmp eq i64 %1, %call.i.i
  br i1 %cmp.i.i, label %cleanup.done, label %lor.end

lor.end:                                          ; preds = %lor.rhs
  %strictLoopThread_.i = getelementptr inbounds i8, ptr %0, i64 57
  %2 = load i8, ptr %strictLoopThread_.i, align 1
  %3 = and i8 %2, 1
  %tobool.not.i = icmp ne i8 %3, 0
  %cmp.i2.i = icmp ne i64 %1, 0
  %spec.select.i.not = or i1 %cmp.i2.i, %tobool.not.i
  br i1 %spec.select.i.not, label %cond.false, label %cleanup.done

cond.false:                                       ; preds = %lor.end
  call void @_ZN6google15LogMessageFatalC1EPKci(ptr noundef nonnull align 8 dereferenceable(96) %ref.tmp3, ptr noundef nonnull @.str, i32 noundef 28)
  %call4 = invoke noundef nonnull align 8 dereferenceable(8) ptr @_ZN6google10LogMessage6streamEv(ptr noundef nonnull align 8 dereferenceable(96) %ref.tmp3)
          to label %invoke.cont unwind label %lpad

invoke.cont:                                      ; preds = %cond.false
  %call6 = invoke noundef nonnull align 8 dereferenceable(8) ptr @_ZStlsISt11char_traitsIcEERSt13basic_ostreamIcT_ES5_PKc(ptr noundef nonnull align 8 dereferenceable(8) %call4, ptr noundef nonnull @.str.3)
          to label %cleanup.action unwind label %lpad

cleanup.action:                                   ; preds = %invoke.cont
  call void @_ZN6google15LogMessageFatalD1Ev(ptr noundef nonnull align 8 dereferenceable(96) %ref.tmp3) #12
  unreachable

lpad:                                             ; preds = %invoke.cont, %cond.false
  %4 = landingpad { ptr, i32 }
          cleanup
  call void @_ZN6google15LogMessageFatalD1Ev(ptr noundef nonnull align 8 dereferenceable(96) %ref.tmp3) #12
  unreachable

cleanup.done:                                     ; preds = %lor.rhs, %entry, %lor.end
  store ptr null, ptr %eventBase_, align 8
  ret void
}